; Function Attrs: mustprogress nofree norecurse nosync nounwind willreturn memory(argmem: read) uwtable
define hidden ptr @b2GetBodyFullId(ptr noundef readonly captures(none) %0, i64 %1) local_unnamed_addr #3 {
  %3 = getelementptr inbounds nuw i8, ptr %0, i64 1032
  %.val = load ptr, ptr %3, align 8, !tbaa !10
  %4 = shl i64 %1, 32
  %sext = add i64 %4, -4294967296
  %5 = ashr exact i64 %sext, 25
  %6 = getelementptr inbounds i8, ptr %.val, i64 %5
  ret ptr %6
}